; Function Attrs: mustprogress nofree nounwind willreturn memory(read) uwtable
define hidden noundef i64 @_ZN5osgeo4proj8internal7ci_findERKNSt7__cxx1112basic_stringIcSt11char_traitsIcESaIcEEES9_m(ptr noundef nonnull readonly align 8 captures(none) dereferenceable(32) %0, ptr noundef nonnull readonly align 8 captures(none) dereferenceable(32) %1, i64 noundef %2) local_unnamed_addr #2 personality ptr @__gxx_personality_v0 {
  %4 = getelementptr inbounds nuw i8, ptr %1, i64 8
  %5 = load i64, ptr %4, align 8, !tbaa !12
  %6 = getelementptr inbounds nuw i8, ptr %0, i64 8
  %7 = load i64, ptr %6, align 8, !tbaa !12
  %8 = add i64 %2, %5
  %.not14 = icmp ugt i64 %8, %7
  br i1 %.not14, label %._crit_edge, label %.lr.ph

.lr.ph:                                           ; preds = %3
  %9 = load ptr, ptr %0, align 8, !tbaa !9
  %10 = load ptr, ptr %1, align 8, !tbaa !9
  %invariant.op = add i64 %5, 1
  br label %11

11:                                               ; preds = %.lr.ph, %15
  %.01215 = phi i64 [ %2, %.lr.ph ], [ %16, %15 ]
  %12 = getelementptr inbounds nuw i8, ptr %9, i64 %.01215
  %13 = tail call i32 @strncasecmp(ptr noundef readonly %12, ptr noundef readonly %10, i64 noundef %5) #24
  %14 = icmp eq i32 %13, 0
  br i1 %14, label %._crit_edge, label %15

15:                                               ; preds = %11
  %16 = add i64 %.01215, 1
  %.reass = add i64 %.01215, %invariant.op
  %.not = icmp ugt i64 %.reass, %7
  br i1 %.not, label %._crit_edge, label %11, !llvm.loop !23

._crit_edge:                                      ; preds = %15, %11, %3
  %spec.select = phi i64 [ -1, %3 ], [ %.01215, %11 ], [ -1, %15 ]
  ret i64 %spec.select
}